target datalayout = "e-m:e-p270:32:32-p271:32:32-p272:64:64-i64:64-i128:128-f80:128-n8:16:32:64-S128"
target triple = "x86_64-unknown-linux-gnu"

%struct.ShaktiUartState = type { %struct.SysBusDevice, %struct.MemoryRegion, i32, i32, i32, i32, i32, i32, i32, i32, i32, %struct.CharBackend }
%struct.SysBusDevice = type { %struct.DeviceState, i32, [32 x %struct.anon], i32, [32 x i32] }
%struct.DeviceState = type { %struct.Object, ptr, ptr, i8, i8, i64, ptr, i32, i8, ptr, %struct.NamedGPIOListHead, %struct.NamedClockListHead, %struct.BusStateHead, i32, i32, i32, %struct.ResettableState, ptr, %struct.MemReentrancyGuard }
%struct.Object = type { ptr, ptr, ptr, i32, ptr }
%struct.NamedGPIOListHead = type { ptr }
%struct.NamedClockListHead = type { ptr }
%struct.BusStateHead = type { ptr }
%struct.ResettableState = type { i32, i8, i8 }
%struct.MemReentrancyGuard = type { i8 }
%struct.anon = type { i64, ptr }
%struct.MemoryRegion = type { %struct.Object, i8, i8, i8, i8, i8, i8, i8, i8, i8, i8, ptr, ptr, ptr, ptr, ptr, ptr, i32, i128, i64, ptr, i64, i8, i8, i8, i8, i8, ptr, i64, i32, %union.anon, %union.anon.0, %union.anon.1, ptr, i32, ptr, ptr, i8 }
%union.anon = type { %struct.QTailQLink }
%struct.QTailQLink = type { ptr, ptr }
%union.anon.0 = type { %struct.QTailQLink }
%union.anon.1 = type { %struct.QTailQLink }
%struct.CharBackend = type { ptr, ptr, ptr, ptr, ptr, ptr, i32, i32 }

@.str.3 = private unnamed_addr constant [22 x i8] c"%s: Bad offset 0x%lx\0A\00", align 1
@qemu_loglevel = external global i32, align 4
@__func__.shakti_uart_write = private unnamed_addr constant [18 x i8] c"shakti_uart_write\00", align 1

; Function Attrs: nounwind sspstrong uwtable
define internal zeroext i1 @qemu_loglevel_mask(i32 noundef %mask) #0 {
entry:
  %mask.addr = alloca i32, align 4
  store i32 %mask, ptr %mask.addr, align 4
  %0 = load i32, ptr @qemu_loglevel, align 4
  %1 = load i32, ptr %mask.addr, align 4
  %and = and i32 %0, %1
  %cmp = icmp ne i32 %and, 0
  ret i1 %cmp
}

; Function Attrs: nounwind sspstrong uwtable
define internal void @shakti_uart_write(ptr noundef %opaque, i64 noundef %addr, i64 noundef %data, i32 noundef %size) #0 {
entry:
  %opaque.addr = alloca ptr, align 8
  %addr.addr = alloca i64, align 8
  %data.addr = alloca i64, align 8
  %size.addr = alloca i32, align 4
  %s = alloca ptr, align 8
  %value = alloca i32, align 4
  %ch = alloca i8, align 1
  store ptr %opaque, ptr %opaque.addr, align 8
  store i64 %addr, ptr %addr.addr, align 8
  store i64 %data, ptr %data.addr, align 8
  store i32 %size, ptr %size.addr, align 4
  %0 = load ptr, ptr %opaque.addr, align 8
  store ptr %0, ptr %s, align 8
  %1 = load i64, ptr %data.addr, align 8
  %conv = trunc i64 %1 to i32
  store i32 %conv, ptr %value, align 4
  %2 = load i64, ptr %addr.addr, align 8
  switch i64 %2, label %sw.default [
    i64 0, label %sw.bb
    i64 4, label %sw.bb1
    i64 12, label %sw.bb3
    i64 16, label %sw.bb5
    i64 20, label %sw.bb6
    i64 24, label %sw.bb7
    i64 28, label %sw.bb8
    i64 32, label %sw.bb9
  ]

sw.bb:                                            ; preds = %entry
  %3 = load i32, ptr %value, align 4
  %4 = load ptr, ptr %s, align 8
  %uart_baud = getelementptr inbounds %struct.ShaktiUartState, ptr %4, i32 0, i32 2
  store i32 %3, ptr %uart_baud, align 16
  br label %sw.epilog

sw.bb1:                                           ; preds = %entry
  %5 = load i32, ptr %value, align 4
  %conv2 = trunc i32 %5 to i8
  store i8 %conv2, ptr %ch, align 1
  %6 = load ptr, ptr %s, align 8
  %chr = getelementptr inbounds %struct.ShaktiUartState, ptr %6, i32 0, i32 11
  %call = call i32 @qemu_chr_fe_write_all(ptr noundef %chr, ptr noundef %ch, i32 noundef 1)
  %7 = load ptr, ptr %s, align 8
  %uart_status = getelementptr inbounds %struct.ShaktiUartState, ptr %7, i32 0, i32 5
  %8 = load i32, ptr %uart_status, align 4
  %and = and i32 %8, -3
  store i32 %and, ptr %uart_status, align 4
  br label %sw.epilog

sw.bb3:                                           ; preds = %entry
  %9 = load i32, ptr %value, align 4
  %10 = load ptr, ptr %s, align 8
  %uart_status4 = getelementptr inbounds %struct.ShaktiUartState, ptr %10, i32 0, i32 5
  store i32 %9, ptr %uart_status4, align 4
  br label %sw.epilog

sw.bb5:                                           ; preds = %entry
  %11 = load i32, ptr %value, align 4
  %12 = load ptr, ptr %s, align 8
  %uart_delay = getelementptr inbounds %struct.ShaktiUartState, ptr %12, i32 0, i32 6
  store i32 %11, ptr %uart_delay, align 16
  br label %sw.epilog

sw.bb6:                                           ; preds = %entry
  %13 = load i32, ptr %value, align 4
  %14 = load ptr, ptr %s, align 8
  %uart_control = getelementptr inbounds %struct.ShaktiUartState, ptr %14, i32 0, i32 7
  store i32 %13, ptr %uart_control, align 4
  br label %sw.epilog

sw.bb7:                                           ; preds = %entry
  %15 = load i32, ptr %value, align 4
  %16 = load ptr, ptr %s, align 8
  %uart_interrupt = getelementptr inbounds %struct.ShaktiUartState, ptr %16, i32 0, i32 8
  store i32 %15, ptr %uart_interrupt, align 8
  br label %sw.epilog

sw.bb8:                                           ; preds = %entry
  %17 = load i32, ptr %value, align 4
  %18 = load ptr, ptr %s, align 8
  %uart_iq_cycles = getelementptr inbounds %struct.ShaktiUartState, ptr %18, i32 0, i32 9
  store i32 %17, ptr %uart_iq_cycles, align 4
  br label %sw.epilog

sw.bb9:                                           ; preds = %entry
  %19 = load i32, ptr %value, align 4
  %20 = load ptr, ptr %s, align 8
  %uart_rx_threshold = getelementptr inbounds %struct.ShaktiUartState, ptr %20, i32 0, i32 10
  store i32 %19, ptr %uart_rx_threshold, align 16
  br label %sw.epilog

sw.default:                                       ; preds = %entry
  br label %do.body

do.body:                                          ; preds = %sw.default
  %call10 = call zeroext i1 @qemu_loglevel_mask(i32 noundef 2048)
  %lnot = xor i1 %call10, true
  %lnot11 = xor i1 %lnot, true
  %lnot.ext = zext i1 %lnot11 to i32
  %conv12 = sext i32 %lnot.ext to i64
  %tobool = icmp ne i64 %conv12, 0
  br i1 %tobool, label %if.then, label %if.end

if.then:                                          ; preds = %do.body
  %21 = load i64, ptr %addr.addr, align 8
  call void (ptr, ...) @qemu_log(ptr noundef @.str.3, ptr noundef @__func__.shakti_uart_write, i64 noundef %21)
  br label %if.end

if.end:                                           ; preds = %if.then, %do.body
  br label %do.end

do.end:                                           ; preds = %if.end
  br label %sw.epilog

sw.epilog:                                        ; preds = %do.end, %sw.bb9, %sw.bb8, %sw.bb7, %sw.bb6, %sw.bb5, %sw.bb3, %sw.bb1, %sw.bb
  ret void
}