; Function Attrs: nounwind sspstrong uwtable
define internal void @shakti_uart_write(ptr noundef %opaque, i64 noundef %addr, i64 noundef %data, i32 %size) #0 {
entry:
  %ch = alloca i8, align 1
  %conv = trunc i64 %data to i32
  %0 = tail call i64 @llvm.fshl.i64(i64 %addr, i64 %addr, i64 62)
  switch i64 %0, label %do.body [
    i64 0, label %sw.bb
    i64 1, label %sw.bb1
    i64 3, label %sw.bb3
    i64 4, label %sw.bb5
    i64 5, label %sw.bb6
    i64 6, label %sw.bb7
    i64 7, label %sw.bb8
    i64 8, label %sw.bb9
  ]

sw.bb:                                            ; preds = %entry
  %uart_baud = getelementptr inbounds nuw i8, ptr %opaque, i64 1088
  store i32 %conv, ptr %uart_baud, align 16
  br label %sw.epilog

sw.bb1:                                           ; preds = %entry
  %conv2 = trunc i64 %data to i8
  store i8 %conv2, ptr %ch, align 1
  %chr = getelementptr inbounds nuw i8, ptr %opaque, i64 1128
  %call = call i32 @qemu_chr_fe_write_all(ptr noundef nonnull %chr, ptr noundef nonnull %ch, i32 noundef 1) #6
  %uart_status = getelementptr inbounds nuw i8, ptr %opaque, i64 1100
  %1 = load i32, ptr %uart_status, align 4
  %and = and i32 %1, -3
  store i32 %and, ptr %uart_status, align 4
  br label %sw.epilog

sw.bb3:                                           ; preds = %entry
  %uart_status4 = getelementptr inbounds nuw i8, ptr %opaque, i64 1100
  store i32 %conv, ptr %uart_status4, align 4
  br label %sw.epilog

sw.bb5:                                           ; preds = %entry
  %uart_delay = getelementptr inbounds nuw i8, ptr %opaque, i64 1104
  store i32 %conv, ptr %uart_delay, align 16
  br label %sw.epilog

sw.bb6:                                           ; preds = %entry
  %uart_control = getelementptr inbounds nuw i8, ptr %opaque, i64 1108
  store i32 %conv, ptr %uart_control, align 4
  br label %sw.epilog

sw.bb7:                                           ; preds = %entry
  %uart_interrupt = getelementptr inbounds nuw i8, ptr %opaque, i64 1112
  store i32 %conv, ptr %uart_interrupt, align 8
  br label %sw.epilog

sw.bb8:                                           ; preds = %entry
  %uart_iq_cycles = getelementptr inbounds nuw i8, ptr %opaque, i64 1116
  store i32 %conv, ptr %uart_iq_cycles, align 4
  br label %sw.epilog

sw.bb9:                                           ; preds = %entry
  %uart_rx_threshold = getelementptr inbounds nuw i8, ptr %opaque, i64 1120
  store i32 %conv, ptr %uart_rx_threshold, align 16
  br label %sw.epilog

do.body:                                          ; preds = %entry
  %2 = load i32, ptr @qemu_loglevel, align 4
  %and.i = and i32 %2, 2048
  %cmp.i.not = icmp eq i32 %and.i, 0
  br i1 %cmp.i.not, label %sw.epilog, label %if.then

if.then:                                          ; preds = %do.body
  tail call void (ptr, ...) @qemu_log(ptr noundef nonnull @.str.3, ptr noundef nonnull @__func__.shakti_uart_write, i64 noundef %addr) #6
  br label %sw.epilog

sw.epilog:                                        ; preds = %if.then, %do.body, %sw.bb9, %sw.bb8, %sw.bb7, %sw.bb6, %sw.bb5, %sw.bb3, %sw.bb1, %sw.bb
  ret void
}